;;; Segment 18D5 (18D5:0000)
18D5:0000 FD 05 C3 05 F6 05 37 04 03 05 00 00 00 00 00 00 ......7.........
18D5:0010 00 00 00 00 00 00 00 00 00 00 00 90 00 00 00 00 ................
18D5:0020 00 00 00 00 00 00 00 00 00 00 00 00 00 00 00 00 ................
; ...
18D5:0310 00 00 1C 00 AC 01 00 01 02 01 03 04 05 04 06 07 ................
18D5:0320 08 07 09 0A 0B 0A 0C 0C 0D 0D 0D 00 1D 00 00 00 ................
18D5:0330 00 00 BA 66 00 00 F2 80 00 00 A9 9D 00 00 5F BA ...f.........._.
18D5:0340 00 00 0A DB 00 00 40 DB 00 00 77 DB 00 00 B0 DB ......@...w.....
18D5:0350 00 00 D2 DA 00 00 DC DB 00 00 14 7D 00 00 00 00 ...........}....
18D5:0360 00 00 00 00 00 00 00 00 00 00 00 00 00 00 00 00 ................
18D5:0370 51 00 7B 00 A2 00 C8 00 4E 00 7A 00 A3 00 CC 00 Q.{.....N.z.....
18D5:0380 4A 00 79 00 A4 00 D0 00 44 00 77 00 A7 00 D7 00 J.y.....D.w.....
18D5:0390 42 00 55 00 6A 00 84 00 00 00 00 00 00 00 00 00 B.U.j...........
18D5:03A0 00 00 00 00 00 00 00 00 00 00 00 00 00 00 00 00 ................
; ...
18D5:03E0 00 00 00 00 1B 00 4B 00 46 00 4B 00 72 00 4B 00 ......K.F.K.r.K.
18D5:03F0 A1 00 4B 00 D0 00 4B 00 FA 00 4B 00 16 00 6A 00 ..K...K...K...j.
18D5:0400 43 00 6A 00 72 00 6A 00 A2 00 6A 00 D3 00 6A 00 C.j.r.j...j...j.
18D5:0410 00 01 6A 00 00 00 00 00 00 00 00 00 00 00 00 00 ..j.............
18D5:0420 00 00 00 00 00 00 00 00 00 00 00 00 00 00 00 00 ................
; ...
18D5:0440 00 00 00 00 00 00 00 00 00 00 00 00 00 00 00 01 ................
18D5:0450 00 01 02 03 04 03 05 06 05 06 07 08 09 08 00 00 ................
18D5:0460 00 00 00 00 00 00 00 00 00 00 00 00 00 00 00 00 ................
; ...
18D5:04D0 00 00 00 00 00 00 00 00 00 00 00 00 B8 00 00 2E ................
18D5:04E0 A3 0E 00 CB C8 00 00 00 55 8B EC 66 56 66 57 1E ........U..fVfW.
18D5:04F0 06 0F A0 FC 8C C8 8E C0 8E D8 2E C7 06 0C 00 10 ................
18D5:0500 00 2E C7 06 5E 03 01 00 BF 60 03 B9 08 00 33 C0 ....^....`....3.
18D5:0510 F3 AB 8B 46 0E 2E A3 11 00 8B 46 10 2E A3 15 00 ...F......F.....
18D5:0520 8B 46 12 2E A3 17 00 8B 46 14 2E A3 19 00 BF 5E .F......F......^
18D5:0530 04 8B 46 16 2E A3 0E 03 8B F0 8B 46 18 2E A3 10 ..F........F....
18D5:0540 03 8E D8 56 06 57 B8 00 A0 8E C0 33 FF B9 C0 5D ...V.W.....3...]
18D5:0550 F3 A5 5F 07 5E 81 C6 1F DD B9 09 00 8B D9 B9 07 .._.^...........
18D5:0560 00 F3 A5 81 C6 32 01 8B CB E2 F1 8C C8 8E D8 B9 .....2..........
18D5:0570 10 00 BF B4 01 8A C1 AA B8 0D 00 0E E8 74 0D 25 .............t.%
18D5:0580 00 00 8B D0 AA 8B 46 08 AB 05 98 03 89 46 08 8B ......F......F..
18D5:0590 46 0A AB 33 C0 AB B8 09 01 0E E8 56 0D 05 0A 00 F..3.......V....
18D5:05A0 AB B8 28 00 0E E8 4B 0D 05 0A 00 AA 85 D2 B8 00 ..(...K.........
18D5:05B0 00 75 0B B8 04 00 0E E8 39 0D FE C0 8A D8 AA B8 .u......9.......
18D5:05C0 28 00 0E E8 2D 0D 05 14 00 AB B8 04 00 0E E8 22 (...-.........."
18D5:05D0 0D FE C0 B0 01 8A E0 AB 85 D2 74 1E B0 10 B4 14 ..........t.....
18D5:05E0 AB 33 C0 AB E2 11 2E C6 06 10 00 05 0F A1 07 1F .3..............
18D5:05F0 66 5F 66 5E 5D C9 CB E9 7B FF FE CB B8 00 04 74 f_f^]...{......t
18D5:0600 11 FE CB B8 04 08 74 0A FE CB B8 08 0C 74 03 B8 ......t......t..
18D5:0610 0C 10 AB 83 C7 02 E2 DF 2E C6 06 10 00 05 0F A1 ................
18D5:0620 07 1F 66 5F 66 5E 5D C9 CB C8 00 00 00 55 8B EC ..f_f^]......U..
18D5:0630 66 56 66 57 1E 06 0F A0 FC 8C C8 8E C0 8E D8 2E fVfW............
18D5:0640 C7 06 0C 00 0A 00 2E C7 06 5E 03 00 00 8B 46 0C .........^....F.
18D5:0650 2E A3 11 00 8B 46 0E 2E A3 15 00 8B 46 14 2E A3 .....F......F...
18D5:0660 0E 03 8B 46 16 2E A3 10 03 8B 46 10 2E A3 13 00 ...F......F.....
18D5:0670 BF 14 04 B9 18 00 33 C0 F3 AB B9 0A 00 BF B4 01 ......3.........
18D5:0680 B8 E4 03 2E A3 E2 03 BB 14 04 2E 80 36 E0 03 01 ............6...
18D5:0690 2E A0 E0 03 FE C0 88 07 FE C8 89 7F 02 B4 11 AB ................
18D5:06A0 8B 46 08 AB 05 98 03 89 46 08 8B 46 0A AB 33 C0 .F......F..F..3.
18D5:06B0 AB 2E 8B 36 E2 03 AD AB AD 2E 89 36 E2 03 AA 32 ...6.......6...2
18D5:06C0 C0 AA B8 28 00 0E E8 2A 0C 05 14 00 AB B8 04 00 ...(...*........
18D5:06D0 0E E8 1F 0C FE C0 B0 01 8A E0 AB B8 00 04 2E 80 ................
18D5:06E0 3E E0 03 01 75 03 B8 08 0C AB 8B C3 AB 83 C3 04 >...u...........
18D5:06F0 E2 98 2E C6 06 10 00 05 0F A1 07 1F 66 5F 66 5E ............f_f^
18D5:0700 5D C9 CB B8 00 00 C3 C8 00 00 00 55 8B EC 66 56 ]..........U..fV
18D5:0710 66 57 1E 06 0F A0 FC 8C DB B9 10 00 8C C8 8E D8 fW..............
18D5:0720 2E 89 1E 0A 00 BE B4 01 B8 1C 00 2E A3 12 03 B8 ................
18D5:0730 2C 01 05 80 00 2E A3 14 03 2E FE 0E 10 00 79 06 ,.............y.
18D5:0740 2E C6 06 10 00 05 FE 4C 0E 74 03 E9 7E 02 80 7C .......L.t..~..|
18D5:0750 01 03 75 03 E9 7B 02 2E 83 3E 0E 00 01 74 68 8B ..u..{...>...th.
18D5:0760 44 08 3B 46 08 73 60 05 28 00 3B 46 08 72 58 8A D.;F.s`.(.;F.rX.
18D5:0770 44 0A 32 E4 3B 46 0A 73 4E 05 17 00 3B 46 0A 72 D.2.;F.sN...;F.r
18D5:0780 46 83 7E 0C 01 74 08 8A 04 2E A2 5C 03 EB 38 2E F.~..t.....\..8.
18D5:0790 C7 06 0E 00 01 00 C6 44 01 03 8A 44 0B 24 03 75 .......D...D.$.u
18D5:07A0 02 B0 01 88 44 0B 2E C7 06 5C 03 00 00 81 7E 08 ....D....\....~.
18D5:07B0 01 01 73 10 83 7E 0A 33 72 0A 8B 7C 12 23 FF 74 ..s..~.3r..|.#.t
18D5:07C0 03 C6 05 00 E9 58 04 F6 44 01 10 74 0C C6 44 01 .....X..D..t..D.
18D5:07D0 11 C7 44 0C 90 01 E9 30 01 80 7C 01 04 74 67 8B ..D....0..|..tg.
18D5:07E0 46 08 2B 44 08 BA 02 00 73 05 F7 D8 BA 01 00 8B F.+D....s.......
18D5:07F0 D8 8A 44 0A 32 E4 83 CA 04 2B 46 0A 73 05 F7 D8 ..D.2....+F.s...
18D5:0800 83 E2 03 83 FB 1E 73 33 3D 14 00 73 2E C6 44 01 ......s3=..s..D.
18D5:0810 04 C6 44 0E 01 3B C3 73 07 80 E2 01 FE C2 EB 06 ..D..;.s........
18D5:0820 C0 EA 02 80 C2 03 88 54 0B B8 32 00 0E E8 C3 0A .......T..2.....
18D5:0830 05 0A 00 89 44 0C 8A DA E9 E4 03 8A 44 01 24 0F ....D.......D.$.
18D5:0840 74 2C FE C8 74 1D FF 4C 0C 75 0B C7 44 0C 14 00 t,..t..L.u..D...
18D5:0850 C6 44 01 00 EB 18 2E C7 06 0C 03 04 00 C6 44 0E .D............D.
18D5:0860 01 EB 12 FF 4C 0C 75 03 E9 BB 02 E9 A3 00 2E C7 ....L.u.........
18D5:0870 06 0C 03 02 00 FF 4C 0C 75 06 8A 5C 0B E9 A6 02 ......L.u..\....
18D5:0880 8A 44 0B FE C8 74 2E FE C8 74 5A FE C8 74 3D 8B .D...t...tZ..t=.
18D5:0890 44 08 3D 01 01 BB 33 00 72 03 BB A7 00 8A 44 0A D.=...3.r.....D.
18D5:08A0 32 E4 2E 03 06 0C 03 3B C3 72 05 B3 04 E9 76 02 2......;.r....v.
18D5:08B0 88 44 0A EB 54 8B 44 08 2E 03 06 0C 03 3D 14 01 .D..T.D......=..
18D5:08C0 72 05 B3 01 E9 5F 02 89 44 08 EB 3D 8A 44 0A 32 r...._..D..=.D.2
18D5:08D0 E4 2E 2B 06 0C 03 3D 10 00 73 05 B3 03 E9 46 02 ..+...=..s....F.
18D5:08E0 88 44 0A EB 24 8A 44 0A 32 E4 3D 33 00 BB 01 01 .D..$.D.2.=3....
18D5:08F0 73 03 BB 06 00 8B 44 08 2E 2B 06 0C 03 3B C3 73 s.....D..+...;.s
18D5:0900 05 B3 02 E9 20 02 89 44 08 8A 44 0F B0 01 88 44 .... ..D..D....D
18D5:0910 0E E8 29 03 E8 5E 03 83 C6 14 E2 02 EB 03 E9 25 ..)..^.........%
18D5:0920 FE BF 32 03 83 C7 02 2E C6 06 98 03 00 B9 04 00 ..2.............
18D5:0930 BE 60 03 AD 02 C4 8A D8 AD 02 C4 02 C3 3C 22 74 .`...........<"t
18D5:0940 06 2E 80 0E 98 03 01 88 05 83 C7 04 E2 E5 B9 04 ................
18D5:0950 00 BE 60 03 8B D6 8A 04 83 C6 04 02 04 83 C6 04 ..`.............
18D5:0960 02 04 83 C6 04 02 04 3C 22 74 06 2E 80 0E 98 03 .......<"t......
18D5:0970 01 88 05 8B F2 46 83 C7 04 E2 D9 BE 60 03 8A 04 .....F......`...
18D5:0980 8A 64 03 02 44 05 02 64 06 02 44 0A 02 64 09 02 .d..D..d..D..d..
18D5:0990 44 0F 02 64 0C 2E A2 58 03 2E 88 26 54 03 3C 22 D..d...X...&T.<"
18D5:09A0 75 05 80 FC 22 74 06 2E 80 0E 98 03 01 2E 80 3E u..."t.........>
18D5:09B0 98 03 00 75 0C 2E A1 0A 00 8E D8 C7 06 21 2F 01 ...u.........!/.
18D5:09C0 00 0F A1 07 1F 66 5F 66 5E 5D C9 CB FE 4C 10 E9 .....f_f^]...L..
18D5:09D0 3F FF 83 7E 0C 01 74 03 E9 05 01 8B 46 08 8B D8 ?..~..t.....F...
18D5:09E0 8B 46 0A 3D A4 00 0F 83 F6 00 3D 33 00 73 16 C7 .F.=......=3.s..
18D5:09F0 44 12 00 00 2E C7 06 0E 00 00 00 2E C7 06 5C 03 D.............\.
18D5:0A00 00 00 E9 21 01 BA 00 00 3C 55 72 17 83 C2 02 3C ...!....<Ur....<
18D5:0A10 6A 72 10 83 C2 02 3C 84 72 09 83 C2 02 3C A4 0F jr....<.r....<..
18D5:0A20 83 BD 00 BF 90 03 03 FA 8A 05 2E A2 2E 03 88 44 ...............D
18D5:0A30 0A 8B C3 33 DB 3D 43 00 0F 82 A4 00 3D 6F 00 72 ...3.=C.....=o.r
18D5:0A40 1A 83 C3 02 3D 9C 00 72 12 83 C3 02 3D C9 00 72 ....=..r....=..r
18D5:0A50 0A 83 C3 02 3D F7 00 0F 83 85 00 8B C2 C1 E0 02 ....=...........
18D5:0A60 BF 70 03 03 F8 03 FB 8B 05 2E A3 30 03 89 44 08 .p.........0..D.
18D5:0A70 D1 E2 D1 EB 03 D3 BF 60 03 03 FA 80 3D 00 75 30 .......`....=.u0
18D5:0A80 8A 04 88 05 C6 44 01 11 89 7C 12 C6 44 0B 00 C7 .....D...|..D...
18D5:0A90 44 0C 90 01 C7 44 0E 01 01 B8 10 14 89 44 10 2E D....D.......D..
18D5:0AA0 C7 06 0E 00 00 00 2E C7 06 5C 03 00 00 E9 61 FE .........\....a.
18D5:0AB0 8A 04 8A D8 86 05 88 04 BF B4 01 2E A1 30 03 2E .............0..
18D5:0AC0 8A 3E 2E 03 39 45 08 74 05 83 C7 14 EB F6 3B F7 .>..9E.t......;.
18D5:0AD0 74 F7 38 7D 0A 75 F2 88 1D 2E C7 06 5C 03 00 00 t.8}.u......\...
18D5:0AE0 2E A1 5C 03 3A 04 73 05 40 2E A3 5C 03 8B 46 08 ..\.:.s.@..\..F.
18D5:0AF0 3D 14 01 72 05 B8 12 01 EB 08 3D 06 00 73 03 B8 =..r......=..s..
18D5:0B00 08 00 89 44 08 8B 46 0A 3D 10 00 73 05 B8 0E 00 ...D..F.=..s....
18D5:0B10 EB 08 3D A7 00 72 03 B8 A5 00 88 44 0A B8 01 01 ..=..r.....D....
18D5:0B20 89 44 0E E9 EB FD 80 7C 01 04 74 27 80 7C 01 01 .D.....|..t'.|..
18D5:0B30 B0 00 74 10 B8 B8 0B 0E E8 B8 07 3D F6 13 B0 00 ..t........=....
18D5:0B40 75 02 B0 01 88 44 01 84 C0 8B D0 B8 00 00 74 03 u....D........t.
18D5:0B50 E9 99 00 2E C6 06 99 03 00 B8 04 00 0E E8 93 07 ................
18D5:0B60 2E FE 06 99 03 2E 80 3E 99 03 03 72 1C FE CB 75 .......>...r...u
18D5:0B70 04 B0 02 EB 75 FE CB 75 04 B0 01 EB 6D FE CB 75 ....u..u....m..u
18D5:0B80 04 B0 04 EB 65 B0 03 EB 61 FE C0 3A C3 74 CA 3C ....e...a..:.t.<
18D5:0B90 01 75 09 81 7C 08 2C 01 73 BF EB 4E 3C 02 75 1A .u..|.,.s..N<.u.
18D5:0BA0 8A 54 0A 32 F6 83 FA 33 BF 06 00 73 03 BF 01 01 .T.2...3...s....
18D5:0BB0 83 C7 0A 3B 7C 08 73 A1 EB 30 3C 03 75 1E 8B 54 ...;|.s..0<.u..T
18D5:0BC0 08 81 FA 01 01 BF 33 00 72 03 BF A7 00 8A 54 0A ......3.r.....T.
18D5:0BD0 32 F6 83 C7 0A 3B D7 73 11 E9 7D FF 8A 54 0A 32 2....;.s..}..T.2
18D5:0BE0 F6 81 FA A7 00 72 03 E9 6F FF 8A D8 88 44 0B B8 .....r..o....D..
18D5:0BF0 8C 00 0E E8 FD 06 05 0A 00 89 44 0C B8 04 00 0E ..........D.....
18D5:0C00 E8 F0 06 B0 01 8A E0 89 44 0E 8A 44 01 A8 10 75 ........D..D...u
18D5:0C10 04 24 03 74 0A B0 10 B4 14 89 44 10 E9 EA FC FE .$.t......D.....
18D5:0C20 CB B8 00 04 74 11 FE CB B8 04 08 74 0A FE CB B8 ....t......t....
18D5:0C30 08 0C 74 03 B8 0C 10 89 44 10 E9 CC FC 8A 44 10 ..t.....D.....D.
18D5:0C40 2E 80 3E 10 00 00 75 0D FE C0 3A 44 11 72 06 2C ..>...u...:D.r.,
18D5:0C50 04 79 02 32 C0 88 44 10 BB 16 03 D7 BB 98 03 32 .y.2..D........2
18D5:0C60 E4 F7 E3 2E 03 06 11 00 2E A3 08 03 2E A1 15 00 ................
18D5:0C70 2E A3 0A 03 C3 8C D8 8E C0 8B DE 2E 8B 36 14 03 .............6..
18D5:0C80 2E 8B 3E 12 03 B0 14 AA 88 04 B0 17 AA 88 44 01 ..>...........D.
18D5:0C90 8B 47 06 89 44 02 2E A1 08 03 AB 2E A1 0A 03 AB .G..D...........
18D5:0CA0 8B 47 02 AB 89 44 04 8B 47 04 AB 89 44 06 33 D2 .G...D..G...D.3.
18D5:0CB0 8A 77 0A 8A C6 32 E4 C1 E0 06 03 C2 03 47 08 AB .w...2.......G..
18D5:0CC0 89 47 06 8B C3 AB 8C D8 AB 2E 89 3E 12 03 83 EE .G.........>....
18D5:0CD0 08 2E 89 36 14 03 8B F3 C3 C8 00 00 00 55 8B EC ...6.........U..
18D5:0CE0 66 56 66 57 1E 06 0F A0 FC 8C DB 8E E3 B9 0A 00 fVfW............
18D5:0CF0 8C C8 8E D8 2E 89 1E 0A 00 BE B4 01 B8 1C 00 2E ................
18D5:0D00 A3 12 03 B8 2C 01 05 80 00 2E A3 14 03 2E FE 0E ....,...........
18D5:0D10 10 00 79 06 2E C6 06 10 00 05 80 7C 01 43 75 5A ..y........|.CuZ
18D5:0D20 2E A1 44 04 05 1E 00 89 44 08 2E A0 48 04 88 44 ..D.....D...H..D
18D5:0D30 0A 2E 80 3E 4A 04 01 75 3E 2E C6 06 4A 04 00 2E ...>J..u>...J...
18D5:0D40 A1 46 04 89 44 08 2E 8B 3E 4C 04 8A 04 FE C0 88 .F..D...>L......
18D5:0D50 05 89 75 02 89 7C 12 C6 44 01 01 C6 44 0B 00 C7 ..u..|..D...D...
18D5:0D60 44 0C 90 01 C7 44 0E 01 01 B8 00 04 80 3C 00 74 D....D.......<.t
18D5:0D70 03 B8 08 0C 89 44 10 E9 C2 00 80 7C 01 03 75 03 .....D.....|..u.
18D5:0D80 E9 2B 01 2E 83 3E 0E 00 01 75 03 E9 9D 00 8B 44 .+...>...u.....D
18D5:0D90 08 3B 46 08 0F 83 93 00 05 28 00 3B 46 08 0F 82 .;F......(.;F...
18D5:0DA0 89 00 8A 44 0A 32 E4 3B 46 0A 73 7F 05 17 00 3B ...D.2.;F.s....;
18D5:0DB0 46 0A 72 77 83 7E 0C 01 75 71 8B 46 08 3D FD 00 F.rw.~..uq.F.=..
18D5:0DC0 73 69 8B 7C 12 83 C7 04 83 3D 00 74 5E 8B 5D 02 si.|.....=.t^.].
18D5:0DD0 C6 47 01 43 B8 04 08 80 3F 00 74 03 B8 0C 10 80 .G.C....?.t.....
18D5:0DE0 3C 00 74 09 64 C7 06 C5 A0 01 00 EB 07 64 C7 06 <.t.d........d..
18D5:0DF0 C3 A0 01 00 89 47 10 C7 05 00 00 83 EF 04 2E C7 .....G..........
18D5:0E00 06 0E 00 01 00 C6 44 01 03 C7 05 00 00 B8 04 08 ......D.........
18D5:0E10 80 3C 00 74 03 B8 0C 10 89 44 10 8B 44 08 2E A3 .<.t.....D..D...
18D5:0E20 44 04 8A 44 0A 2E A2 48 04 EB 11 C6 44 01 11 C7 D..D...H....D...
18D5:0E30 44 0C 90 01 8A 44 0F B0 01 88 44 0E E8 75 01 E8 D....D....D..u..
18D5:0E40 33 FE 83 C6 14 E2 64 BE 10 04 8B FE 83 7C 04 00 3.....d......|..
18D5:0E50 75 4E 83 7C 08 00 75 48 B0 01 83 C6 04 3A 04 75 uN.|..uH.....:.u
18D5:0E60 F9 3A 44 04 75 3A 3A 44 08 75 35 3A 44 0C 75 30 .:D.u::D.u5:D.u0
18D5:0E70 3A 44 10 75 2B B0 02 8B F7 83 C6 04 3A 04 75 F9 :D.u+.......:.u.
18D5:0E80 3A 44 04 75 1B 3A 44 08 75 16 3A 44 0C 75 11 3A :D.u.:D.u.:D.u.:
18D5:0E90 44 10 75 0C 2E A1 0A 00 8E D8 C7 06 83 2B 01 00 D.u..........+..
18D5:0EA0 0F A1 07 1F 66 5F 66 5E 5D C9 CB E9 6C FE 83 7E ....f_f^]...l..~
18D5:0EB0 0C 01 74 03 E9 BC 00 8B 46 0A 3D 45 00 73 03 E9 ..t.....F.=E.s..
18D5:0EC0 B1 00 3D 89 00 72 03 E9 A9 00 2D 45 00 BB 00 00 ..=..r....-E....
18D5:0ED0 3D 22 00 72 03 BB 06 00 8B 46 08 3D 46 00 72 1A =".r.....F.=F.r.
18D5:0EE0 43 3D 72 00 72 14 43 3D A2 00 72 0E 43 3D D3 00 C=r.r.C=..r.C=..
18D5:0EF0 72 08 43 3D 00 01 72 02 EB 79 C1 E3 02 BF 14 04 r.C=..r..y......
18D5:0F00 03 FB 83 3D 00 75 6C 83 7D 04 00 75 66 8A 04 FE ...=.ul.}..uf...
18D5:0F10 C0 88 05 89 75 02 89 7C 12 83 C7 04 2E 89 3E 4C ....u..|......>L
18D5:0F20 04 BF E4 03 03 FB 8B 05 89 44 08 05 14 00 2E A3 .........D......
18D5:0F30 44 04 8B 45 04 2E A3 46 04 8A 45 02 88 44 0A 2E D..E...F..E..D..
18D5:0F40 A2 48 04 C6 44 01 01 C6 44 0B 00 C7 44 0C 90 01 .H..D...D...D...
18D5:0F50 C7 44 0E 01 01 B8 00 04 80 3C 00 74 03 B8 08 0C .D.......<.t....
18D5:0F60 89 44 10 2E C6 06 4A 04 01 2E C7 06 0E 00 00 00 .D....J.........
18D5:0F70 E9 C9 FE 8B 46 08 3D 0A 01 72 05 B8 08 01 EB 08 ....F.=..r......
18D5:0F80 3D 06 00 73 03 B8 08 00 89 44 08 2E A3 44 04 8B =..s.....D...D..
18D5:0F90 46 0A 3D 7B 00 72 05 B8 79 00 EB 08 3D 10 00 73 F.={.r..y...=..s
18D5:0FA0 03 B8 14 00 88 44 0A 2E A2 48 04 B8 01 01 89 44 .....D...H.....D
18D5:0FB0 0E E9 88 FE 8A 44 10 2E 80 3E 10 00 00 75 0D FE .....D...>...u..
18D5:0FC0 C0 3A 44 11 72 06 2C 04 79 02 32 C0 88 44 10 BB .:D.r.,.y.2..D..
18D5:0FD0 4E 04 D7 BB 98 03 32 E4 F7 E3 2E 8B 1E 11 00 80 N.....2.........
18D5:0FE0 3C 00 74 05 2E 8B 1E 13 00 03 C3 2E A3 08 03 2E <.t.............
18D5:0FF0 A1 15 00 2E A3 0A 03 C3 55 8B EC 66 56 66 57 1E ........U..fVfW.
18D5:1000 06 0F A0 FC 8C C8 8E D8 B8 9C 03 2E A3 9A 03 2E ................
18D5:1010 8B 0E 0C 00 2E 8B 36 14 03 83 C6 08 51 8B 44 02 ......6.....Q.D.
18D5:1020 23 C0 74 30 8B F8 2E 03 3E 0E 03 2E A1 10 03 8E #.t0....>.......
18D5:1030 C0 8B 44 06 56 8B 74 04 8E D8 B9 17 00 8B D9 B9 ..D.V.t.........
18D5:1040 14 00 F3 A5 81 C7 18 01 8B CB E2 F1 5E 83 C6 08 ............^...
18D5:1050 8C C8 8E D8 59 E2 C5 2E 83 3E 5E 03 00 74 35 B9 ....Y....>^..t5.
18D5:1060 0B 00 2E A1 10 03 8E C0 2E 8B 16 0E 03 BE 32 03 ..............2.
18D5:1070 8B 3C 03 FA 8B 44 02 B3 0A F6 F3 50 57 E8 20 01 .<...D.....PW. .
18D5:1080 5F 57 E8 E4 00 5F 83 C7 07 58 86 C4 E8 DA 00 83 _W..._...X......
18D5:1090 C6 04 E2 DC 2E 8B 0E 0C 00 BE 1C 00 51 8B 7C 06 ............Q.|.
18D5:10A0 8B 44 08 8E C0 2E A1 10 03 56 8B 74 0A 2E 03 36 .D.......V.t...6
18D5:10B0 0E 03 56 50 8E D8 B9 17 00 8B D9 B9 14 00 F3 A5 ..VP............
18D5:10C0 81 C6 18 01 8B CB E2 F1 07 8C C8 8E D8 5F 5E 56 ............._^V
18D5:10D0 8B 44 04 8B 74 02 8E D8 B9 17 00 57 8B D9 B9 28 .D..t......W...(
18D5:10E0 00 AC 22 C0 74 03 26 88 05 47 E2 F5 81 C7 18 01 ..".t.&..G......
18D5:10F0 8B CB E2 E8 5F 8C C8 8E D8 5E 8B 5C 0C F6 47 01 ...._....^.\..G.
18D5:1100 10 74 25 2E 83 3E 5E 03 00 74 1D 81 C7 CC 08 56 .t%..>^..t.....V
18D5:1110 8A 07 32 E4 B3 0A F6 F3 50 57 E8 4C 00 5F 83 C7 ..2.....PW.L._..
18D5:1120 07 58 86 C4 E8 42 00 5E 83 C6 10 59 E2 38 0F A1 .X...B.^...Y.8..
18D5:1130 07 1F 66 5F 66 5E 5D CB 55 8B EC 66 56 66 57 1E ..f_f^].U..fVfW.
18D5:1140 06 0F A0 FC B8 00 A0 8E C0 33 FF 2E 8B 36 0E 03 .........3...6..
18D5:1150 2E A1 10 03 8E D8 B9 80 3E F3 66 A5 0F A1 07 1F ........>.f.....
18D5:1160 66 5F 66 5E 5D CB E9 33 FF 1E 56 51 2E 8B 1E 19 f_f^]..3..VQ....
18D5:1170 00 2E 8B 36 17 00 8E DB BB 3F 00 F6 E3 03 F0 B9 ...6.....?......
18D5:1180 09 00 50 8B D9 B9 07 00 AC 22 C0 74 03 26 88 05 ..P......".t.&..
18D5:1190 47 E2 F5 81 C7 39 01 8B CB E2 E8 58 59 5E 1F C3 G....9.....XY^..
18D5:11A0 51 56 BE 5E 04 B9 09 00 8B D9 B9 07 00 F3 A5 81 QV.^............
18D5:11B0 C7 32 01 8B CB E2 F1 5E 59 C3 55 8B EC 66 56 66 .2.....^Y.U..fVf
18D5:11C0 57 1E 06 0F A0 FC B8 00 A0 8E C0 BF 8A 0C 2E 8B W...............
18D5:11D0 36 0E 03 81 C6 8A 0C 2E A1 10 03 8E D8 B9 8C 00 6...............
18D5:11E0 8B D9 B9 96 00 F3 A5 83 C6 14 83 C7 14 8B CB E2 ................
18D5:11F0 EF 0F A1 07 1F 66 5F 66 5E 5D CB                .....f_f^].    

;; fn18D5_11FB: 18D5:11FB
;;   Called from:
;;     0CE0:0C59 (in fn0CE0_08FC)
fn18D5_11FB proc
	enter	0h,0h
	push	bp
	mov	bp,sp
	push	esi
	push	edi
	push	ds
	push	es
	push	fs
	cld
	les	di,[bp+8h]
	mov	ax,0A000h
	mov	ds,ax
	mov	si,0BB80h
	mov	bx,di
	mov	cx,1F40h

l18D5_121B:
	rep movsw

l18D5_121D:
	xor	cx,cx
	mov	ax,ds
	mov	dx,es
	mov	ds,dx
	mov	es,ax
	mov	ax,[bp+0Ch]
	add	ax,0BB80h
	mov	cs:[1299h],ax

l18D5_1231:
	push	cs
	call	12E5h
	mov	di,0BB80h
	mov	dx,cx
	inc	dx
	mov	ah,cl
	xor	al,al
	shl	cx,6h
	add	cx,ax
	add	di,cx
	mov	ax,[bp+0Eh]
	push	ds
	mov	ds,ax
	mov	si,cs:[1299h]
	mov	cx,5h

l18D5_1254:
	rep movsw

l18D5_1256:
	mov	si,di
	add	si,[bp+0Ch]
	mov	cx,96h

l18D5_125E:
	rep movsw

l18D5_1260:
	mov	si,cs:[1299h]
	add	si,136h
	mov	cx,5h

l18D5_126C:
	rep movsw

l18D5_126E:
	mov	cs:[1299h],si
	pop	ds
	mov	si,bx
	mov	cx,32h
	sub	cx,dx
	shl	cx,5h
	mov	ax,cx
	shl	cx,2h
	add	cx,ax

l18D5_1285:
	rep movsw

l18D5_1287:
	mov	cx,dx
	cmp	cx,29h
	jc	1231h

l18D5_128E:
	pop	fs
	pop	es
	pop	ds
	pop	edi
	pop	esi
	pop	bp
	leave
	retf
18D5:1299                            00 00                         ..    

;; fn18D5_129B: 18D5:129B
;;   Called from:
;;     0CE0:113E (in fn0CE0_08FC)
fn18D5_129B proc
	enter	0h,0h
	push	bp
	mov	bp,sp
	push	esi
	push	edi
	push	ds
	push	es
	push	fs
	cld
	mov	ax,0A000h
	mov	es,ax
	mov	di,0ED80h
	mov	ax,[bp+0Ah]
	mov	ds,ax
	mov	bx,29h
	mov	cx,640h

l18D5_12BE:
	push	cs
	call	12E5h
	mov	ax,cx
	mov	dx,di
	mov	si,[bp+8h]

l18D5_12C9:
	rep movsw

l18D5_12CB:
	mov	cx,ax
	add	cx,0A0h
	mov	di,dx
	sub	di,140h
	dec	bx
	jnz	12BEh

l18D5_12DA:
	pop	fs
	pop	es
	pop	ds
	pop	edi
	pop	esi
	pop	bp
	leave
	retf

;; fn18D5_12E5: 18D5:12E5
;;   Called from:
;;     18D5:1231 (in fn18D5_11FB)
;;     18D5:12BE (in fn18D5_129B)
fn18D5_12E5 proc
	mov	dx,3DAh

l18D5_12E8:
	in	al,dx
	and	al,8h
	jz	12E8h

l18D5_12ED:
	in	al,dx
	and	al,8h
	jnz	12EDh

l18D5_12F2:
	retf
18D5:12F3          56 53 51 52 55 8B E8 2E A1 2C 03 2E 8B    VSQRU....,...
18D5:1300 1E 2A 03 8B F0 8B CB 8A D4 8A E0 8A C7 8A FB 0A .*..............
18D5:1310 DB D0 DA D1 D8 D1 DB 03 D9 13 C6 81 D3 E9 62 15 ..............b.
18D5:1320 19 36 2E 89 1E 2A 03 2E A3 2C 03 33 D2 F7 F5 8B .6...*...,.3....
